MPASM 5.84     TMR0_RB0_KESMELI_7SEG_PRJ.ASM   11-22-2021  16:01:09         PAGE  1


LOC  OBJECT CODE     LINE SOURCE TEXT
  VALUE

                      00001 ;KODLAMA SABLONU
                      00002 
                      00003         list            p=16f877A       
                      00004         #include        <p16f877A.inc>  
                      00001         LIST
                      00002 
                      00003 ;==========================================================================
                      00004 ; Build date : Mar 17 2019
                      00005 ;  MPASM PIC16F877A processor include
                      00006 ; 
                      00007 ;  (c) Copyright 1999-2019 Microchip Technology, All rights reserved
                      00008 ;==========================================================================
                      00009 
                      00567         LIST
                      00005         
2007   3F31           00006         __CONFIG H'3F31'
                      00007 
                      00008         
                      00009 ;kullanilacak degiskenler
  00000020            00010 KACKEZ          EQU         0x20
  00000021            00011 BIRLER          EQU         0x21
  00000022            00012 ONLAR           EQU         0x22                
                      00013                 
                      00014 ;kesme icin kullanilacak yardimci degiskenler
  0000007D            00015 w_temp          EQU         0x7D
  0000007E            00016 status_temp     EQU         0x7E        
  0000007F            00017 pclath_temp     EQU         0x7F        
                      00018 ;******************************************************************************* 
                      00019                 ORG         0x000
                      00020                 
0000   0000           00021                 nop
                      00022                 
0001   2???           00023                 GOTO        BASLA
                      00024 ;*******************************************************************************                
                      00025         ORG     0x004
                      00026         
0004   00FD           00027         movwf   w_temp
0005   0803           00028         movf    STATUS,w
0006   00FE           00029         movwf   status_temp
0007   080A           00030         movf    PCLATH,W
0008   00FF           00031         movwf   pclath_temp
                      00032         
0009   188B           00033         BTFSC   INTCON,INTF
000A   2???           00034         GOTO    RB0_ALTPROGRAM
                      00035         
000B   110B           00036         BCF     INTCON,T0IF
000C   108B           00037         BCF     INTCON,INTF
                      00038         
000D   3006           00039         MOVLW   d'6'
000E   0081           00040         MOVWF   TMR0
                      00041         
000F   0BA0           00042         DECFSZ  KACKEZ,F
0010   2???           00043         GOTO    CIK
MPASM 5.84     TMR0_RB0_KESMELI_7SEG_PRJ.ASM   11-22-2021  16:01:09         PAGE  2


LOC  OBJECT CODE     LINE SOURCE TEXT
  VALUE

0011   2???           00044         CALL    TMR0_ALTPROGRAM
                      00045         
0012   178B           00046 CIK     BSF     INTCON,GIE
                      00047         
0013   087E           00048         movf    status_temp,w
0014   0083           00049         movwf   STATUS
0015   087F           00050         movf    pclath_temp,w
0016   008A           00051         movwf   PCLATH
0017   0EFD           00052         swapf   w_temp,f
0018   0E7D           00053         swapf   w_temp,w
0019   0009           00054         retfie
                      00055 ;***********************************************************************************************
001A                  00056 RAKAMLAR
001A   0782           00057         ADDWF   PCL,F
001B   343F           00058         RETLW   b'00111111' ;0
001C   3406           00059         RETLW   b'00000110' ;1
001D   345B           00060         RETLW   b'01011011' ;2
001E   344F           00061         RETLW   b'01001111' ;3
001F   3466           00062         RETLW   b'01100110' ;4
0020   346D           00063         RETLW   b'01101101' ;5
0021   347D           00064         RETLW   b'01111101' ;6  
0022   3407           00065         RETLW   b'00000111' ;7
0023   347F           00066         RETLW   b'01111111' ;8
0024   346F           00067         RETLW   b'01101111' ;9  
                      00068 ;***********************************************************************************************        
0025                  00069 RB0_ALTPROGRAM
                      00070         
0025   3001           00071         MOVLW   b'00000001'
0026   0085           00072         MOVWF   PORTA
0027   0821           00073         MOVF    BIRLER,W
0028   2???           00074         CALL    RAKAMLAR
0029   0087           00075         MOVWF   PORTC
Message[305]: Using default destination of 1 (file).
002A   0AA1           00076         INCF    BIRLER
                      00077 
002B   0008           00078         RETURN
                      00079 ;***********************************************************************************************
002C                  00080 TMR0_ALTPROGRAM
                      00081 
002C   0008           00082         RETURN
                      00083 ;***********************************************************************************************        
002D                  00084 RB0_KESME_AYARLA
002D   160B           00085         BSF     INTCON,INTE
002E   178B           00086         BSF     INTCON,GIE
                      00087         
Message[302]: Register in operand not in bank 0.  Ensure that bank bits are correct.
002F   1301           00088         BCF     OPTION_REG,INTEDG       ;DUSEN KENAR OLARAK AYARLAMAK ICIN INTEDG YI SIFIRLADIK
                      00089                                         ;YUKSELEN KENAR OLARAK AYARLAMAK ISTESEYDIK BSF ILE 1 VERIRDIK
0030   0008           00090         RETURN
                      00091 ;***********************************************************************************************
0031                  00092 TMR0_AYARLA
                      00093         ;PRESCALER DE?ER LAZIM OLURSA BURDA BSF KOMUTLARIYLA OPTION REG ÜZER?NDEN AYARLA
0031   1683 1303      00094         BANKSEL    OPTION_REG
MPASM 5.84     TMR0_RB0_KESMELI_7SEG_PRJ.ASM   11-22-2021  16:01:09         PAGE  3


LOC  OBJECT CODE     LINE SOURCE TEXT
  VALUE

Message[302]: Register in operand not in bank 0.  Ensure that bank bits are correct.
0033   1401           00095         BSF     OPTION_REG,0
Message[302]: Register in operand not in bank 0.  Ensure that bank bits are correct.
0034   1481           00096         BSF     OPTION_REG,1
                      00097         
0035   1283 1303      00098         BANKSEL TMR0
0037   3006           00099         MOVLW   d'6'
0038   0081           00100         MOVWF   TMR0
                      00101         
0039   0008           00102         RETURN
                      00103 ;***********************************************************************************************
003A                  00104 TMR0_KESME_AYARLA
003A   168B           00105         BSF     INTCON,T0IE
003B   178B           00106         BSF     INTCON,GIE
003C   0008           00107         RETURN
                      00108 ;***********************************************************************************************        
003D                  00109 PORTA_AYARLA
003D   1683 1303      00110         BANKSEL TRISA
003F   3006           00111         MOVLW   0x06
Message[302]: Register in operand not in bank 0.  Ensure that bank bits are correct.
0040   009F           00112         MOVWF   ADCON1
                      00113         
0041   303C           00114         MOVLW   b'00111100'
Message[302]: Register in operand not in bank 0.  Ensure that bank bits are correct.
0042   0085           00115         MOVWF   TRISA
                      00116         
0043   1283 1303      00117         BANKSEL PORTA
0045   0185           00118         CLRF    PORTA
                      00119         
0046   0008           00120         RETURN
                      00121 ;***********************************************************************************************
0047                  00122 PORTB_AYARLA
0047   1683 1303      00123         BANKSEL TRISB
0049   3001           00124         MOVLW   b'00000001'
Message[302]: Register in operand not in bank 0.  Ensure that bank bits are correct.
004A   0086           00125         MOVWF   TRISB
                      00126         
004B   1283 1303      00127         BANKSEL PORTB
004D   0186           00128         CLRF    PORTB
                      00129         
004E   0008           00130         RETURN
                      00131 ;***********************************************************************************************
004F                  00132 PORTC_AYARLA
004F   1683 1303      00133         BANKSEL TRISC
Message[302]: Register in operand not in bank 0.  Ensure that bank bits are correct.
0051   0187           00134         CLRF    TRISC
                      00135         
0052   1283 1303      00136         BANKSEL PORTC
0054   0187           00137         CLRF    PORTC
                      00138         
0055   0008           00139         RETURN
                      00140 ;***********************************************************************************************        
0056                  00141 BASLA   
MPASM 5.84     TMR0_RB0_KESMELI_7SEG_PRJ.ASM   11-22-2021  16:01:09         PAGE  4


LOC  OBJECT CODE     LINE SOURCE TEXT
  VALUE

0056   3001           00142         MOVLW   d'1'
0057   00A0           00143         MOVWF   KACKEZ
                      00144         
0058   3000           00145         MOVLW   0x00
0059   00A1           00146         MOVWF   BIRLER
                      00147         
005A   3000           00148         MOVLW   0x00
005B   00A2           00149         MOVWF   ONLAR
                      00150         
005C   2???           00151         CALL    TMR0_AYARLA
005D   2???           00152         CALL    TMR0_KESME_AYARLA
                      00153         
005E   2???           00154         CALL    RB0_KESME_AYARLA
                      00155         
005F   2???           00156         CALL    PORTA_AYARLA
0060   2???           00157         CALL    PORTB_AYARLA
0061   2???           00158         CALL    PORTC_AYARLA
                      00159         
0062                  00160 XD      
0062   2???           00161         GOTO    XD
3F31                  00162         END                       ; Program sonu
MPASM 5.84     TMR0_RB0_KESMELI_7SEG_PRJ.ASM   11-22-2021  16:01:09         PAGE  5


SYMBOL TABLE
  LABEL                             VALUE 

ACKDT                             00000005
ACKEN                             00000004
ACKSTAT                           00000006
ADCON0                            0000001F
ADCON1                            0000009F
ADCS0                             00000006
ADCS1                             00000007
ADCS2                             00000006
ADDEN                             00000003
ADFM                              00000007
ADIE                              00000006
ADIF                              00000006
ADON                              00000000
ADRESH                            0000001E
ADRESL                            0000009E
BASLA                             00000056
BCLIE                             00000003
BCLIF                             00000003
BF                                00000000
BIRLER                            00000021
BRGH                              00000002
C                                 00000000
C1INV                             00000004
C1OUT                             00000006
C2INV                             00000005
C2OUT                             00000007
CCP1CON                           00000017
CCP1IE                            00000002
CCP1IF                            00000002
CCP1M0                            00000000
CCP1M1                            00000001
CCP1M2                            00000002
CCP1M3                            00000003
CCP1X                             00000005
CCP1Y                             00000004
CCP2CON                           0000001D
CCP2IE                            00000000
CCP2IF                            00000000
CCP2M0                            00000000
CCP2M1                            00000001
CCP2M2                            00000002
CCP2M3                            00000003
CCP2X                             00000005
CCP2Y                             00000004
CCPR1                             00000015
CCPR1H                            00000016
CCPR1L                            00000015
CCPR2                             0000001B
CCPR2H                            0000001C
CCPR2L                            0000001B
CHS0                              00000003
CHS1                              00000004
CHS2                              00000005
MPASM 5.84     TMR0_RB0_KESMELI_7SEG_PRJ.ASM   11-22-2021  16:01:09         PAGE  6


SYMBOL TABLE
  LABEL                             VALUE 

CIK                               00000012
CIS                               00000003
CKE                               00000006
CKP                               00000004
CM0                               00000000
CM1                               00000001
CM2                               00000002
CMCON                             0000009C
CMIE                              00000006
CMIF                              00000006
CREN                              00000004
CSRC                              00000007
CVR0                              00000000
CVR1                              00000001
CVR2                              00000002
CVR3                              00000003
CVRCON                            0000009D
CVREN                             00000007
CVROE                             00000006
CVRR                              00000005
D                                 00000005
DATA_ADDRESS                      00000005
DC                                00000001
D_A                               00000005
D_NOT_A                           00000005
EEADR                             0000010D
EEADRH                            0000010F
EECON1                            0000018C
EECON2                            0000018D
EEDATA                            0000010C
EEDATH                            0000010E
EEIE                              00000004
EEIF                              00000004
EEPGD                             00000007
F                                 00000001
FERR                              00000002
FSR                               00000004
GCEN                              00000007
GIE                               00000007
GO                                00000002
GO_DONE                           00000002
GO_NOT_DONE                       00000002
I2C_DATA                          00000005
I2C_READ                          00000002
I2C_START                         00000003
I2C_STOP                          00000004
IBF                               00000007
IBOV                              00000005
INDF                              00000000
INTCON                            0000000B
INTE                              00000004
INTEDG                            00000006
INTF                              00000001
MPASM 5.84     TMR0_RB0_KESMELI_7SEG_PRJ.ASM   11-22-2021  16:01:09         PAGE  7


SYMBOL TABLE
  LABEL                             VALUE 

IRP                               00000007
KACKEZ                            00000020
NOT_A                             00000005
NOT_ADDRESS                       00000005
NOT_BO                            00000000
NOT_BOR                           00000000
NOT_DONE                          00000002
NOT_PD                            00000003
NOT_POR                           00000001
NOT_RBPU                          00000007
NOT_RC8                           00000006
NOT_T1SYNC                        00000002
NOT_TO                            00000004
NOT_TX8                           00000006
NOT_W                             00000002
NOT_WRITE                         00000002
OBF                               00000006
OERR                              00000001
ONLAR                             00000022
OPTION_REG                        00000081
P                                 00000004
PCFG0                             00000000
PCFG1                             00000001
PCFG2                             00000002
PCFG3                             00000003
PCL                               00000002
PCLATH                            0000000A
PCON                              0000008E
PEIE                              00000006
PEN                               00000002
PIE1                              0000008C
PIE2                              0000008D
PIR1                              0000000C
PIR2                              0000000D
PORTA                             00000005
PORTA_AYARLA                      0000003D
PORTB                             00000006
PORTB_AYARLA                      00000047
PORTC                             00000007
PORTC_AYARLA                      0000004F
PORTD                             00000008
PORTE                             00000009
PR2                               00000092
PS0                               00000000
PS1                               00000001
PS2                               00000002
PSA                               00000003
PSPIE                             00000007
PSPIF                             00000007
PSPMODE                           00000004
R                                 00000002
RA0                               00000000
RA1                               00000001
MPASM 5.84     TMR0_RB0_KESMELI_7SEG_PRJ.ASM   11-22-2021  16:01:09         PAGE  8


SYMBOL TABLE
  LABEL                             VALUE 

RA2                               00000002
RA3                               00000003
RA4                               00000004
RA5                               00000005
RAKAMLAR                          0000001A
RB0                               00000000
RB0_ALTPROGRAM                    00000025
RB0_KESME_AYARLA                  0000002D
RB1                               00000001
RB2                               00000002
RB3                               00000003
RB4                               00000004
RB5                               00000005
RB6                               00000006
RB7                               00000007
RBIE                              00000003
RBIF                              00000000
RC0                               00000000
RC1                               00000001
RC2                               00000002
RC3                               00000003
RC4                               00000004
RC5                               00000005
RC6                               00000006
RC7                               00000007
RC8_9                             00000006
RC9                               00000006
RCD8                              00000000
RCEN                              00000003
RCIE                              00000005
RCIF                              00000005
RCREG                             0000001A
RCSTA                             00000018
RD                                00000000
RD0                               00000000
RD1                               00000001
RD2                               00000002
RD3                               00000003
RD4                               00000004
RD5                               00000005
RD6                               00000006
RD7                               00000007
RE0                               00000000
RE1                               00000001
RE2                               00000002
READ_WRITE                        00000002
RP0                               00000005
RP1                               00000006
RSEN                              00000001
RX9                               00000006
RX9D                              00000000
R_NOT_W                           00000002
R_W                               00000002
MPASM 5.84     TMR0_RB0_KESMELI_7SEG_PRJ.ASM   11-22-2021  16:01:09         PAGE  9


SYMBOL TABLE
  LABEL                             VALUE 

S                                 00000003
SEN                               00000000
SMP                               00000007
SPBRG                             00000099
SPEN                              00000007
SREN                              00000005
SSPADD                            00000093
SSPBUF                            00000013
SSPCON                            00000014
SSPCON2                           00000091
SSPEN                             00000005
SSPIE                             00000003
SSPIF                             00000003
SSPM0                             00000000
SSPM1                             00000001
SSPM2                             00000002
SSPM3                             00000003
SSPOV                             00000006
SSPSTAT                           00000094
STATUS                            00000003
SYNC                              00000004
T0CS                              00000005
T0IE                              00000005
T0IF                              00000002
T0SE                              00000004
T1CKPS0                           00000004
T1CKPS1                           00000005
T1CON                             00000010
T1INSYNC                          00000002
T1OSCEN                           00000003
T1SYNC                            00000002
T2CKPS0                           00000000
T2CKPS1                           00000001
T2CON                             00000012
TMR0                              00000001
TMR0IE                            00000005
TMR0IF                            00000002
TMR0_ALTPROGRAM                   0000002C
TMR0_AYARLA                       00000031
TMR0_KESME_AYARLA                 0000003A
TMR1                              0000000E
TMR1CS                            00000001
TMR1H                             0000000F
TMR1IE                            00000000
TMR1IF                            00000000
TMR1L                             0000000E
TMR1ON                            00000000
TMR2                              00000011
TMR2IE                            00000001
TMR2IF                            00000001
TMR2ON                            00000002
TOUTPS0                           00000003
TOUTPS1                           00000004
MPASM 5.84     TMR0_RB0_KESMELI_7SEG_PRJ.ASM   11-22-2021  16:01:09         PAGE 10


SYMBOL TABLE
  LABEL                             VALUE 

TOUTPS2                           00000005
TOUTPS3                           00000006
TRISA                             00000085
TRISA0                            00000000
TRISA1                            00000001
TRISA2                            00000002
TRISA3                            00000003
TRISA4                            00000004
TRISA5                            00000005
TRISB                             00000086
TRISB0                            00000000
TRISB1                            00000001
TRISB2                            00000002
TRISB3                            00000003
TRISB4                            00000004
TRISB5                            00000005
TRISB6                            00000006
TRISB7                            00000007
TRISC                             00000087
TRISC0                            00000000
TRISC1                            00000001
TRISC2                            00000002
TRISC3                            00000003
TRISC4                            00000004
TRISC5                            00000005
TRISC6                            00000006
TRISC7                            00000007
TRISD                             00000088
TRISD0                            00000000
TRISD1                            00000001
TRISD2                            00000002
TRISD3                            00000003
TRISD4                            00000004
TRISD5                            00000005
TRISD6                            00000006
TRISD7                            00000007
TRISE                             00000089
TRISE0                            00000000
TRISE1                            00000001
TRISE2                            00000002
TRMT                              00000001
TX8_9                             00000006
TX9                               00000006
TX9D                              00000000
TXD8                              00000000
TXEN                              00000005
TXIE                              00000004
TXIF                              00000004
TXREG                             00000019
TXSTA                             00000098
UA                                00000001
W                                 00000000
WCOL                              00000007
MPASM 5.84     TMR0_RB0_KESMELI_7SEG_PRJ.ASM   11-22-2021  16:01:09         PAGE 11


SYMBOL TABLE
  LABEL                             VALUE 

WR                                00000001
WREN                              00000002
WRERR                             00000003
XD                                00000062
Z                                 00000002
_BODEN_OFF                        00003FBF
_BODEN_ON                         00003FFF
_BOREN_OFF                        00003FBF
_BOREN_ON                         00003FFF
_CONFIG                           00002007
_CPD_OFF                          00003FFF
_CPD_ON                           00003EFF
_CP_ALL                           00001FFF
_CP_OFF                           00003FFF
_CP_ON                            00001FFF
_DEBUG_OFF                        00003FFF
_DEBUG_ON                         000037FF
_DEVID1                           00002006
_FOSC_EXTRC                       00003FFF
_FOSC_HS                          00003FFE
_FOSC_LP                          00003FFC
_FOSC_XT                          00003FFD
_HS_OSC                           00003FFE
_IDLOC0                           00002000
_IDLOC1                           00002001
_IDLOC2                           00002002
_IDLOC3                           00002003
_LP_OSC                           00003FFC
_LVP_OFF                          00003F7F
_LVP_ON                           00003FFF
_PWRTE_OFF                        00003FFF
_PWRTE_ON                         00003FF7
_RC_OSC                           00003FFF
_WDTE_OFF                         00003FFB
_WDTE_ON                          00003FFF
_WDT_OFF                          00003FFB
_WDT_ON                           00003FFF
_WRT_1FOURTH                      00003BFF
_WRT_256                          00003DFF
_WRT_HALF                         000039FF
_WRT_OFF                          00003FFF
_XT_OSC                           00003FFD
__16F877A                         00000001
pclath_temp                       0000007F
status_temp                       0000007E
w_temp                            0000007D

Errors   :     0
Warnings :     0 reported,     0 suppressed
Messages :     8 reported,     0 suppressed

