MPASM 5.84                            AA.ASM   11-9-2021  12:27:24         PAGE  1


LOC  OBJECT CODE     LINE SOURCE TEXT
  VALUE

                      00001 #include    <p16f877a.inc>
                      00001         LIST
                      00002 
                      00003 ;==========================================================================
                      00004 ; Build date : Mar 17 2019
                      00005 ;  MPASM PIC16F877A processor include
                      00006 ; 
                      00007 ;  (c) Copyright 1999-2019 Microchip Technology, All rights reserved
                      00008 ;==========================================================================
                      00009 
                      00567         LIST
                      00002     
  00000020            00003 D1              EQU     0x20
  00000021            00004 D2              EQU     0x21
  00000022            00005 D3              EQU     0x22
                      00006                 
  00000023            00007 BIRLER          EQU     0x23
  00000024            00008 ONLAR           EQU     0x24
  00000025            00009 SAYAC_BIRLER    EQU     0x25
  00000026            00010 SAYAC_ONLAR     EQU     0x26
                      00011             
                      00012             ORG     0x000
                      00013     
0000   0000           00014             nop
                      00015     
0001   2???           00016             GOTO    BASLA
0002                  00017 GECIKME
0002   3004           00018         MOVLW   0x04
0003   00A2           00019         MOVWF   D3
                      00020             
0004   30FF           00021 LOOP3   MOVLW   0xFF
0005   00A1           00022         MOVWF   D2
                      00023             
0006   30FF           00024 LOOP2   MOVLW   0xFF
0007   00A0           00025         MOVWF   D1
                      00026         
0008   0BA0           00027 LOOP1   DECFSZ  D1,F
0009   2???           00028         GOTO    LOOP1
                      00029         
000A   0BA1           00030         DECFSZ  D2,F
000B   2???           00031         GOTO    LOOP2
                      00032         
000C   0BA2           00033         DECFSZ  D3,F
000D   2???           00034         GOTO    LOOP3
000E   0008           00035         RETURN
                      00036 
000F                  00037 RAKAMLAR_CIFT
000F   0782           00038         ADDWF   PCL,F
0010   343F           00039         RETLW   b'00111111' ;0
0011   345B           00040         RETLW   b'01011011' ;2
0012   3466           00041         RETLW   b'01100110' ;4
0013   347D           00042         RETLW   b'01111101' ;6       
0014   347F           00043         RETLW   b'01111111' ;8
MPASM 5.84                            AA.ASM   11-9-2021  12:27:24         PAGE  2


LOC  OBJECT CODE     LINE SOURCE TEXT
  VALUE

0015                  00044 RAKAMLAR
0015   0782           00045         ADDWF   PCL,F
0016   343F           00046         RETLW   b'00111111' ;0
0017   3406           00047         RETLW   b'00000110' ;1
0018   345B           00048         RETLW   b'01011011' ;2
0019   344F           00049         RETLW   b'01001111' ;3 
001A   3466           00050         RETLW   b'01100110' ;4
001B   346D           00051         RETLW   b'01101101' ;5
001C   347D           00052         RETLW   b'01111101' ;6
001D   3407           00053         RETLW   b'00000111' ;7 
001E   347F           00054         RETLW   b'01111111' ;8
001F   346F           00055         RETLW   b'01101111' ;9
                      00056         
0020                  00057 BASLA   
                      00058         
                      00059         ;PORTA AYARLA
0020   1283 1303      00060         BANKSEL PORTA
0022   0185           00061         CLRF    PORTA
                      00062         
0023   1683 1303      00063         BANKSEL TRISA
0025   3006           00064         MOVLW   0x06
Message[302]: Register in operand not in bank 0.  Ensure that bank bits are correct.
0026   009F           00065         MOVWF   ADCON1
                      00066         
0027   303C           00067         MOVLW   b'00111100'
Message[302]: Register in operand not in bank 0.  Ensure that bank bits are correct.
0028   0085           00068         MOVWF   TRISA
                      00069         
                      00070         ;PORTB AYARLA
0029   1683 1303      00071         BANKSEL TRISB
Message[302]: Register in operand not in bank 0.  Ensure that bank bits are correct.
002B   0186           00072         CLRF    TRISB
                      00073         
002C   1283 1303      00074         BANKSEL PORTB
002E   0186           00075         CLRF    PORTB
                      00076         
                      00077         ;SAYACLARI AYARLA
                      00078         
002F   3000           00079         MOVLW   0x00
0030   00A3           00080         MOVWF   BIRLER
                      00081         
0031   3004           00082         MOVLW   0x04
0032   00A5           00083         MOVWF   SAYAC_BIRLER
                      00084         
0033   3000           00085         MOVLW   0x00
0034   00A4           00086         MOVWF   ONLAR
                      00087         
0035   300A           00088         MOVLW   0x0A
0036   00A6           00089         MOVWF   SAYAC_ONLAR
                      00090         
                      00091         ;ARTTIRMAYA BIRLERDEN BASLA
0037   3001           00092 DONGU1  MOVLW   b'00000001'
0038   0085           00093         MOVWF   PORTA
MPASM 5.84                            AA.ASM   11-9-2021  12:27:24         PAGE  3


LOC  OBJECT CODE     LINE SOURCE TEXT
  VALUE

0039   0AA3           00094         INCF    BIRLER,F
003A   0823           00095         MOVF    BIRLER,W
003B   2???           00096         CALL    RAKAMLAR_CIFT
003C   0086           00097         MOVWF   PORTB
003D   2???           00098         CALL    GECIKME
                      00099         
003E   3002           00100         MOVLW   b'00000010'
003F   0085           00101         MOVWF   PORTA
0040   0824           00102         MOVF    ONLAR,W
0041   2???           00103         CALL    RAKAMLAR
0042   0086           00104         MOVWF   PORTB
0043   2???           00105         CALL    GECIKME
Message[305]: Using default destination of 1 (file).
0044   0BA5           00106         DECFSZ  SAYAC_BIRLER
0045   2???           00107         CALL    DONGU1
                      00108         
                      00109         ;SAYACLARI SIFIRLA
0046   3000           00110         MOVLW   0x00
0047   00A3           00111         MOVWF   BIRLER
                      00112         
0048   3004           00113         MOVLW   0x04
0049   00A5           00114         MOVWF   SAYAC_BIRLER
                      00115         
                      00116         ;ARTTIRMAYA ONLARDAN BASLA
004A   3002           00117         MOVLW   b'00000010'
004B   0085           00118         MOVWF   PORTA
004C   0AA4           00119         INCF    ONLAR,F
004D   0824           00120         MOVF    ONLAR,W
004E   2???           00121         CALL    RAKAMLAR
004F   0086           00122         MOVWF   PORTB
0050   2???           00123         CALL    GECIKME
Message[305]: Using default destination of 1 (file).
0051   0BA6           00124         DECFSZ  SAYAC_ONLAR
0052   2???           00125         CALL    DONGU1
                      00126         
                      00127         ;SAYACLARI SIFIRLA
0053   3000           00128         MOVLW   0x00
0054   00A3           00129         MOVWF   BIRLER
                      00130         
0055   3004           00131         MOVLW   0x04
0056   00A5           00132         MOVWF   SAYAC_BIRLER
                      00133         
0057   3000           00134         MOVLW   0x00
0058   00A4           00135         MOVWF   ONLAR
                      00136         
0059   300A           00137         MOVLW   0x0A
005A   00A6           00138         MOVWF   SAYAC_ONLAR
005B   2???           00139         CALL    DONGU1
                      00140         
                      00141         END
MPASM 5.84                            AA.ASM   11-9-2021  12:27:24         PAGE  4


SYMBOL TABLE
  LABEL                             VALUE 

ACKDT                             00000005
ACKEN                             00000004
ACKSTAT                           00000006
ADCON0                            0000001F
ADCON1                            0000009F
ADCS0                             00000006
ADCS1                             00000007
ADCS2                             00000006
ADDEN                             00000003
ADFM                              00000007
ADIE                              00000006
ADIF                              00000006
ADON                              00000000
ADRESH                            0000001E
ADRESL                            0000009E
BASLA                             00000020
BCLIE                             00000003
BCLIF                             00000003
BF                                00000000
BIRLER                            00000023
BRGH                              00000002
C                                 00000000
C1INV                             00000004
C1OUT                             00000006
C2INV                             00000005
C2OUT                             00000007
CCP1CON                           00000017
CCP1IE                            00000002
CCP1IF                            00000002
CCP1M0                            00000000
CCP1M1                            00000001
CCP1M2                            00000002
CCP1M3                            00000003
CCP1X                             00000005
CCP1Y                             00000004
CCP2CON                           0000001D
CCP2IE                            00000000
CCP2IF                            00000000
CCP2M0                            00000000
CCP2M1                            00000001
CCP2M2                            00000002
CCP2M3                            00000003
CCP2X                             00000005
CCP2Y                             00000004
CCPR1                             00000015
CCPR1H                            00000016
CCPR1L                            00000015
CCPR2                             0000001B
CCPR2H                            0000001C
CCPR2L                            0000001B
CHS0                              00000003
CHS1                              00000004
CHS2                              00000005
MPASM 5.84                            AA.ASM   11-9-2021  12:27:24         PAGE  5


SYMBOL TABLE
  LABEL                             VALUE 

CIS                               00000003
CKE                               00000006
CKP                               00000004
CM0                               00000000
CM1                               00000001
CM2                               00000002
CMCON                             0000009C
CMIE                              00000006
CMIF                              00000006
CREN                              00000004
CSRC                              00000007
CVR0                              00000000
CVR1                              00000001
CVR2                              00000002
CVR3                              00000003
CVRCON                            0000009D
CVREN                             00000007
CVROE                             00000006
CVRR                              00000005
D                                 00000005
D1                                00000020
D2                                00000021
D3                                00000022
DATA_ADDRESS                      00000005
DC                                00000001
DONGU1                            00000037
D_A                               00000005
D_NOT_A                           00000005
EEADR                             0000010D
EEADRH                            0000010F
EECON1                            0000018C
EECON2                            0000018D
EEDATA                            0000010C
EEDATH                            0000010E
EEIE                              00000004
EEIF                              00000004
EEPGD                             00000007
F                                 00000001
FERR                              00000002
FSR                               00000004
GCEN                              00000007
GECIKME                           00000002
GIE                               00000007
GO                                00000002
GO_DONE                           00000002
GO_NOT_DONE                       00000002
I2C_DATA                          00000005
I2C_READ                          00000002
I2C_START                         00000003
I2C_STOP                          00000004
IBF                               00000007
IBOV                              00000005
INDF                              00000000
MPASM 5.84                            AA.ASM   11-9-2021  12:27:24         PAGE  6


SYMBOL TABLE
  LABEL                             VALUE 

INTCON                            0000000B
INTE                              00000004
INTEDG                            00000006
INTF                              00000001
IRP                               00000007
LOOP1                             00000008
LOOP2                             00000006
LOOP3                             00000004
NOT_A                             00000005
NOT_ADDRESS                       00000005
NOT_BO                            00000000
NOT_BOR                           00000000
NOT_DONE                          00000002
NOT_PD                            00000003
NOT_POR                           00000001
NOT_RBPU                          00000007
NOT_RC8                           00000006
NOT_T1SYNC                        00000002
NOT_TO                            00000004
NOT_TX8                           00000006
NOT_W                             00000002
NOT_WRITE                         00000002
OBF                               00000006
OERR                              00000001
ONLAR                             00000024
OPTION_REG                        00000081
P                                 00000004
PCFG0                             00000000
PCFG1                             00000001
PCFG2                             00000002
PCFG3                             00000003
PCL                               00000002
PCLATH                            0000000A
PCON                              0000008E
PEIE                              00000006
PEN                               00000002
PIE1                              0000008C
PIE2                              0000008D
PIR1                              0000000C
PIR2                              0000000D
PORTA                             00000005
PORTB                             00000006
PORTC                             00000007
PORTD                             00000008
PORTE                             00000009
PR2                               00000092
PS0                               00000000
PS1                               00000001
PS2                               00000002
PSA                               00000003
PSPIE                             00000007
PSPIF                             00000007
PSPMODE                           00000004
MPASM 5.84                            AA.ASM   11-9-2021  12:27:24         PAGE  7


SYMBOL TABLE
  LABEL                             VALUE 

R                                 00000002
RA0                               00000000
RA1                               00000001
RA2                               00000002
RA3                               00000003
RA4                               00000004
RA5                               00000005
RAKAMLAR                          00000015
RAKAMLAR_CIFT                     0000000F
RB0                               00000000
RB1                               00000001
RB2                               00000002
RB3                               00000003
RB4                               00000004
RB5                               00000005
RB6                               00000006
RB7                               00000007
RBIE                              00000003
RBIF                              00000000
RC0                               00000000
RC1                               00000001
RC2                               00000002
RC3                               00000003
RC4                               00000004
RC5                               00000005
RC6                               00000006
RC7                               00000007
RC8_9                             00000006
RC9                               00000006
RCD8                              00000000
RCEN                              00000003
RCIE                              00000005
RCIF                              00000005
RCREG                             0000001A
RCSTA                             00000018
RD                                00000000
RD0                               00000000
RD1                               00000001
RD2                               00000002
RD3                               00000003
RD4                               00000004
RD5                               00000005
RD6                               00000006
RD7                               00000007
RE0                               00000000
RE1                               00000001
RE2                               00000002
READ_WRITE                        00000002
RP0                               00000005
RP1                               00000006
RSEN                              00000001
RX9                               00000006
RX9D                              00000000
MPASM 5.84                            AA.ASM   11-9-2021  12:27:24         PAGE  8


SYMBOL TABLE
  LABEL                             VALUE 

R_NOT_W                           00000002
R_W                               00000002
S                                 00000003
SAYAC_BIRLER                      00000025
SAYAC_ONLAR                       00000026
SEN                               00000000
SMP                               00000007
SPBRG                             00000099
SPEN                              00000007
SREN                              00000005
SSPADD                            00000093
SSPBUF                            00000013
SSPCON                            00000014
SSPCON2                           00000091
SSPEN                             00000005
SSPIE                             00000003
SSPIF                             00000003
SSPM0                             00000000
SSPM1                             00000001
SSPM2                             00000002
SSPM3                             00000003
SSPOV                             00000006
SSPSTAT                           00000094
STATUS                            00000003
SYNC                              00000004
T0CS                              00000005
T0IE                              00000005
T0IF                              00000002
T0SE                              00000004
T1CKPS0                           00000004
T1CKPS1                           00000005
T1CON                             00000010
T1INSYNC                          00000002
T1OSCEN                           00000003
T1SYNC                            00000002
T2CKPS0                           00000000
T2CKPS1                           00000001
T2CON                             00000012
TMR0                              00000001
TMR0IE                            00000005
TMR0IF                            00000002
TMR1                              0000000E
TMR1CS                            00000001
TMR1H                             0000000F
TMR1IE                            00000000
TMR1IF                            00000000
TMR1L                             0000000E
TMR1ON                            00000000
TMR2                              00000011
TMR2IE                            00000001
TMR2IF                            00000001
TMR2ON                            00000002
TOUTPS0                           00000003
MPASM 5.84                            AA.ASM   11-9-2021  12:27:24         PAGE  9


SYMBOL TABLE
  LABEL                             VALUE 

TOUTPS1                           00000004
TOUTPS2                           00000005
TOUTPS3                           00000006
TRISA                             00000085
TRISA0                            00000000
TRISA1                            00000001
TRISA2                            00000002
TRISA3                            00000003
TRISA4                            00000004
TRISA5                            00000005
TRISB                             00000086
TRISB0                            00000000
TRISB1                            00000001
TRISB2                            00000002
TRISB3                            00000003
TRISB4                            00000004
TRISB5                            00000005
TRISB6                            00000006
TRISB7                            00000007
TRISC                             00000087
TRISC0                            00000000
TRISC1                            00000001
TRISC2                            00000002
TRISC3                            00000003
TRISC4                            00000004
TRISC5                            00000005
TRISC6                            00000006
TRISC7                            00000007
TRISD                             00000088
TRISD0                            00000000
TRISD1                            00000001
TRISD2                            00000002
TRISD3                            00000003
TRISD4                            00000004
TRISD5                            00000005
TRISD6                            00000006
TRISD7                            00000007
TRISE                             00000089
TRISE0                            00000000
TRISE1                            00000001
TRISE2                            00000002
TRMT                              00000001
TX8_9                             00000006
TX9                               00000006
TX9D                              00000000
TXD8                              00000000
TXEN                              00000005
TXIE                              00000004
TXIF                              00000004
TXREG                             00000019
TXSTA                             00000098
UA                                00000001
W                                 00000000
MPASM 5.84                            AA.ASM   11-9-2021  12:27:24         PAGE 10


SYMBOL TABLE
  LABEL                             VALUE 

WCOL                              00000007
WR                                00000001
WREN                              00000002
WRERR                             00000003
Z                                 00000002
_BODEN_OFF                        00003FBF
_BODEN_ON                         00003FFF
_BOREN_OFF                        00003FBF
_BOREN_ON                         00003FFF
_CONFIG                           00002007
_CPD_OFF                          00003FFF
_CPD_ON                           00003EFF
_CP_ALL                           00001FFF
_CP_OFF                           00003FFF
_CP_ON                            00001FFF
_DEBUG_OFF                        00003FFF
_DEBUG_ON                         000037FF
_DEVID1                           00002006
_FOSC_EXTRC                       00003FFF
_FOSC_HS                          00003FFE
_FOSC_LP                          00003FFC
_FOSC_XT                          00003FFD
_HS_OSC                           00003FFE
_IDLOC0                           00002000
_IDLOC1                           00002001
_IDLOC2                           00002002
_IDLOC3                           00002003
_LP_OSC                           00003FFC
_LVP_OFF                          00003F7F
_LVP_ON                           00003FFF
_PWRTE_OFF                        00003FFF
_PWRTE_ON                         00003FF7
_RC_OSC                           00003FFF
_WDTE_OFF                         00003FFB
_WDTE_ON                          00003FFF
_WDT_OFF                          00003FFB
_WDT_ON                           00003FFF
_WRT_1FOURTH                      00003BFF
_WRT_256                          00003DFF
_WRT_HALF                         000039FF
_WRT_OFF                          00003FFF
_XT_OSC                           00003FFD
__16F877A                         00000001

Errors   :     0
Warnings :     0 reported,     0 suppressed
Messages :     5 reported,     0 suppressed

